target datalayout = "e-m:e-p270:32:32-p271:32:32-p272:64:64-i64:64-i128:128-f80:128-n8:16:32:64-S128"
target triple = "x86_64-pc-linux-gnu"

%struct.prov_cipher_ctx_st = type { [16 x i8], [16 x i8], [16 x i8], ptr, %union.anon, i32, i64, i64, i64, i64, i32, i8, i32, ptr, i32, i64, i32, i64, i32, ptr, ptr, ptr }
%union.anon = type { ptr }
%struct.prov_cipher_hw_st = type { ptr, ptr, ptr }

@.str.1 = private unnamed_addr constant [60 x i8] c"../openssl/providers/implementations/ciphers/ciphercommon.c\00", align 1
@__func__.ossl_cipher_generic_block_final = private unnamed_addr constant [32 x i8] c"ossl_cipher_generic_block_final\00", align 1

; Function Attrs: nounwind uwtable
define i32 @ossl_cipher_generic_block_final(ptr noundef %0, ptr noundef %1, ptr noundef %2, i64 noundef %3) #0 {
  %5 = alloca i32, align 4
  %6 = alloca ptr, align 8
  %7 = alloca ptr, align 8
  %8 = alloca ptr, align 8
  %9 = alloca i64, align 8
  %10 = alloca ptr, align 8
  %11 = alloca i64, align 8
  %12 = alloca i32, align 4
  store ptr %0, ptr %6, align 8, !tbaa !3
  store ptr %1, ptr %7, align 8, !tbaa !25
  store ptr %2, ptr %8, align 8, !tbaa !37
  store i64 %3, ptr %9, align 8, !tbaa !11
  call void @llvm.lifetime.start.p0(i64 8, ptr %10) #7
  %13 = load ptr, ptr %6, align 8, !tbaa !3
  store ptr %13, ptr %10, align 8, !tbaa !13
  call void @llvm.lifetime.start.p0(i64 8, ptr %11) #7
  %14 = load ptr, ptr %10, align 8, !tbaa !13
  %15 = getelementptr inbounds nuw %struct.prov_cipher_ctx_st, ptr %14, i32 0, i32 8
  %16 = load i64, ptr %15, align 8, !tbaa !39
  store i64 %16, ptr %11, align 8, !tbaa !11
  %17 = call i32 @ossl_prov_is_running()
  %18 = icmp ne i32 %17, 0
  br i1 %18, label %20, label %19

19:                                               ; preds = %4
  store i32 0, ptr %5, align 4
  store i32 1, ptr %12, align 4
  br label %174

20:                                               ; preds = %4
  %21 = load ptr, ptr %10, align 8, !tbaa !13
  %22 = getelementptr inbounds nuw %struct.prov_cipher_ctx_st, ptr %21, i32 0, i32 11
  %23 = load i8, ptr %22, align 4
  %24 = lshr i8 %23, 3
  %25 = and i8 %24, 1
  %26 = zext i8 %25 to i32
  %27 = icmp ne i32 %26, 0
  br i1 %27, label %29, label %28

28:                                               ; preds = %20
  call void @ERR_new()
  call void @ERR_set_debug(ptr noundef @.str.1, i32 noundef 428, ptr noundef @__func__.ossl_cipher_generic_block_final)
  call void (i32, i32, ptr, ...) @ERR_set_error(i32 noundef 57, i32 noundef 114, ptr noundef null)
  store i32 0, ptr %5, align 4
  store i32 1, ptr %12, align 4
  br label %174

29:                                               ; preds = %20
  %30 = load ptr, ptr %10, align 8, !tbaa !13
  %31 = getelementptr inbounds nuw %struct.prov_cipher_ctx_st, ptr %30, i32 0, i32 12
  %32 = load i32, ptr %31, align 8, !tbaa !40
  %33 = icmp ugt i32 %32, 0
  br i1 %33, label %34, label %35

34:                                               ; preds = %29
  call void @ERR_new()
  call void @ERR_set_debug(ptr noundef @.str.1, i32 noundef 434, ptr noundef @__func__.ossl_cipher_generic_block_final)
  call void (i32, i32, ptr, ...) @ERR_set_error(i32 noundef 57, i32 noundef 102, ptr noundef null)
  store i32 0, ptr %5, align 4
  store i32 1, ptr %12, align 4
  br label %174

35:                                               ; preds = %29
  %36 = load ptr, ptr %10, align 8, !tbaa !13
  %37 = getelementptr inbounds nuw %struct.prov_cipher_ctx_st, ptr %36, i32 0, i32 11
  %38 = load i8, ptr %37, align 4
  %39 = lshr i8 %38, 1
  %40 = and i8 %39, 1
  %41 = zext i8 %40 to i32
  %42 = icmp ne i32 %41, 0
  br i1 %42, label %43, label %98

43:                                               ; preds = %35
  %44 = load ptr, ptr %10, align 8, !tbaa !13
  %45 = getelementptr inbounds nuw %struct.prov_cipher_ctx_st, ptr %44, i32 0, i32 11
  %46 = load i8, ptr %45, align 4
  %47 = and i8 %46, 1
  %48 = zext i8 %47 to i32
  %49 = icmp ne i32 %48, 0
  br i1 %49, label %50, label %57

50:                                               ; preds = %43
  %51 = load ptr, ptr %10, align 8, !tbaa !13
  %52 = getelementptr inbounds nuw %struct.prov_cipher_ctx_st, ptr %51, i32 0, i32 1
  %53 = getelementptr inbounds [16 x i8], ptr %52, i64 0, i64 0
  %54 = load ptr, ptr %10, align 8, !tbaa !13
  %55 = getelementptr inbounds nuw %struct.prov_cipher_ctx_st, ptr %54, i32 0, i32 9
  %56 = load i64, ptr %11, align 8, !tbaa !11
  call void @ossl_cipher_padblock(ptr noundef %53, ptr noundef %55, i64 noundef %56)
  br label %73

57:                                               ; preds = %43
  %58 = load ptr, ptr %10, align 8, !tbaa !13
  %59 = getelementptr inbounds nuw %struct.prov_cipher_ctx_st, ptr %58, i32 0, i32 9
  %60 = load i64, ptr %59, align 8, !tbaa !26
  %61 = icmp eq i64 %60, 0
  br i1 %61, label %62, label %64

62:                                               ; preds = %57
  %63 = load ptr, ptr %8, align 8, !tbaa !37
  store i64 0, ptr %63, align 8, !tbaa !11
  store i32 1, ptr %5, align 4
  store i32 1, ptr %12, align 4
  br label %174

64:                                               ; preds = %57
  %65 = load ptr, ptr %10, align 8, !tbaa !13
  %66 = getelementptr inbounds nuw %struct.prov_cipher_ctx_st, ptr %65, i32 0, i32 9
  %67 = load i64, ptr %66, align 8, !tbaa !26
  %68 = load i64, ptr %11, align 8, !tbaa !11
  %69 = icmp ne i64 %67, %68
  br i1 %69, label %70, label %71

70:                                               ; preds = %64
  call void @ERR_new()
  call void @ERR_set_debug(ptr noundef @.str.1, i32 noundef 445, ptr noundef @__func__.ossl_cipher_generic_block_final)
  call void (i32, i32, ptr, ...) @ERR_set_error(i32 noundef 57, i32 noundef 107, ptr noundef null)
  store i32 0, ptr %5, align 4
  store i32 1, ptr %12, align 4
  br label %174

71:                                               ; preds = %64
  br label %72

72:                                               ; preds = %71
  br label %73

73:                                               ; preds = %72, %50
  %74 = load i64, ptr %9, align 8, !tbaa !11
  %75 = load i64, ptr %11, align 8, !tbaa !11
  %76 = icmp ult i64 %74, %75
  br i1 %76, label %77, label %78

77:                                               ; preds = %73
  call void @ERR_new()
  call void @ERR_set_debug(ptr noundef @.str.1, i32 noundef 450, ptr noundef @__func__.ossl_cipher_generic_block_final)
  call void (i32, i32, ptr, ...) @ERR_set_error(i32 noundef 57, i32 noundef 106, ptr noundef null)
  store i32 0, ptr %5, align 4
  store i32 1, ptr %12, align 4
  br label %174

78:                                               ; preds = %73
  %79 = load ptr, ptr %10, align 8, !tbaa !13
  %80 = getelementptr inbounds nuw %struct.prov_cipher_ctx_st, ptr %79, i32 0, i32 19
  %81 = load ptr, ptr %80, align 8, !tbaa !29
  %82 = getelementptr inbounds nuw %struct.prov_cipher_hw_st, ptr %81, i32 0, i32 1
  %83 = load ptr, ptr %82, align 8, !tbaa !44
  %84 = load ptr, ptr %10, align 8, !tbaa !13
  %85 = load ptr, ptr %7, align 8, !tbaa !25
  %86 = load ptr, ptr %10, align 8, !tbaa !13
  %87 = getelementptr inbounds nuw %struct.prov_cipher_ctx_st, ptr %86, i32 0, i32 1
  %88 = getelementptr inbounds [16 x i8], ptr %87, i64 0, i64 0
  %89 = load i64, ptr %11, align 8, !tbaa !11
  %90 = call i32 %83(ptr noundef %84, ptr noundef %85, ptr noundef %88, i64 noundef %89)
  %91 = icmp ne i32 %90, 0
  br i1 %91, label %93, label %92

92:                                               ; preds = %78
  call void @ERR_new()
  call void @ERR_set_debug(ptr noundef @.str.1, i32 noundef 454, ptr noundef @__func__.ossl_cipher_generic_block_final)
  call void (i32, i32, ptr, ...) @ERR_set_error(i32 noundef 57, i32 noundef 102, ptr noundef null)
  store i32 0, ptr %5, align 4
  store i32 1, ptr %12, align 4
  br label %174

93:                                               ; preds = %78
  %94 = load ptr, ptr %10, align 8, !tbaa !13
  %95 = getelementptr inbounds nuw %struct.prov_cipher_ctx_st, ptr %94, i32 0, i32 9
  store i64 0, ptr %95, align 8, !tbaa !26
  %96 = load i64, ptr %11, align 8, !tbaa !11
  %97 = load ptr, ptr %8, align 8, !tbaa !37
  store i64 %96, ptr %97, align 8, !tbaa !11
  store i32 1, ptr %5, align 4
  store i32 1, ptr %12, align 4
  br label %174

98:                                               ; preds = %35
  %99 = load ptr, ptr %10, align 8, !tbaa !13
  %100 = getelementptr inbounds nuw %struct.prov_cipher_ctx_st, ptr %99, i32 0, i32 9
  %101 = load i64, ptr %100, align 8, !tbaa !26
  %102 = load i64, ptr %11, align 8, !tbaa !11
  %103 = icmp ne i64 %101, %102
  br i1 %103, label %104, label %119

104:                                              ; preds = %98
  %105 = load ptr, ptr %10, align 8, !tbaa !13
  %106 = getelementptr inbounds nuw %struct.prov_cipher_ctx_st, ptr %105, i32 0, i32 9
  %107 = load i64, ptr %106, align 8, !tbaa !26
  %108 = icmp eq i64 %107, 0
  br i1 %108, label %109, label %118

109:                                              ; preds = %104
  %110 = load ptr, ptr %10, align 8, !tbaa !13
  %111 = getelementptr inbounds nuw %struct.prov_cipher_ctx_st, ptr %110, i32 0, i32 11
  %112 = load i8, ptr %111, align 4
  %113 = and i8 %112, 1
  %114 = zext i8 %113 to i32
  %115 = icmp ne i32 %114, 0
  br i1 %115, label %118, label %116

116:                                              ; preds = %109
  %117 = load ptr, ptr %8, align 8, !tbaa !37
  store i64 0, ptr %117, align 8, !tbaa !11
  store i32 1, ptr %5, align 4
  store i32 1, ptr %12, align 4
  br label %174

118:                                              ; preds = %109, %104
  call void @ERR_new()
  call void @ERR_set_debug(ptr noundef @.str.1, i32 noundef 468, ptr noundef @__func__.ossl_cipher_generic_block_final)
  call void (i32, i32, ptr, ...) @ERR_set_error(i32 noundef 57, i32 noundef 107, ptr noundef null)
  store i32 0, ptr %5, align 4
  store i32 1, ptr %12, align 4
  br label %174

119:                                              ; preds = %98
  %120 = load ptr, ptr %10, align 8, !tbaa !13
  %121 = getelementptr inbounds nuw %struct.prov_cipher_ctx_st, ptr %120, i32 0, i32 19
  %122 = load ptr, ptr %121, align 8, !tbaa !29
  %123 = getelementptr inbounds nuw %struct.prov_cipher_hw_st, ptr %122, i32 0, i32 1
  %124 = load ptr, ptr %123, align 8, !tbaa !44
  %125 = load ptr, ptr %10, align 8, !tbaa !13
  %126 = load ptr, ptr %10, align 8, !tbaa !13
  %127 = getelementptr inbounds nuw %struct.prov_cipher_ctx_st, ptr %126, i32 0, i32 1
  %128 = getelementptr inbounds [16 x i8], ptr %127, i64 0, i64 0
  %129 = load ptr, ptr %10, align 8, !tbaa !13
  %130 = getelementptr inbounds nuw %struct.prov_cipher_ctx_st, ptr %129, i32 0, i32 1
  %131 = getelementptr inbounds [16 x i8], ptr %130, i64 0, i64 0
  %132 = load i64, ptr %11, align 8, !tbaa !11
  %133 = call i32 %124(ptr noundef %125, ptr noundef %128, ptr noundef %131, i64 noundef %132)
  %134 = icmp ne i32 %133, 0
  br i1 %134, label %136, label %135

135:                                              ; preds = %119
  call void @ERR_new()
  call void @ERR_set_debug(ptr noundef @.str.1, i32 noundef 473, ptr noundef @__func__.ossl_cipher_generic_block_final)
  call void (i32, i32, ptr, ...) @ERR_set_error(i32 noundef 57, i32 noundef 102, ptr noundef null)
  store i32 0, ptr %5, align 4
  store i32 1, ptr %12, align 4
  br label %174

136:                                              ; preds = %119
  %137 = load ptr, ptr %10, align 8, !tbaa !13
  %138 = getelementptr inbounds nuw %struct.prov_cipher_ctx_st, ptr %137, i32 0, i32 11
  %139 = load i8, ptr %138, align 4
  %140 = and i8 %139, 1
  %141 = zext i8 %140 to i32
  %142 = icmp ne i32 %141, 0
  br i1 %142, label %143, label %153

143:                                              ; preds = %136
  %144 = load ptr, ptr %10, align 8, !tbaa !13
  %145 = getelementptr inbounds nuw %struct.prov_cipher_ctx_st, ptr %144, i32 0, i32 1
  %146 = getelementptr inbounds [16 x i8], ptr %145, i64 0, i64 0
  %147 = load ptr, ptr %10, align 8, !tbaa !13
  %148 = getelementptr inbounds nuw %struct.prov_cipher_ctx_st, ptr %147, i32 0, i32 9
  %149 = load i64, ptr %11, align 8, !tbaa !11
  %150 = call i32 @ossl_cipher_unpadblock(ptr noundef %146, ptr noundef %148, i64 noundef %149)
  %151 = icmp ne i32 %150, 0
  br i1 %151, label %153, label %152

152:                                              ; preds = %143
  store i32 0, ptr %5, align 4
  store i32 1, ptr %12, align 4
  br label %174

153:                                              ; preds = %143, %136
  %154 = load i64, ptr %9, align 8, !tbaa !11
  %155 = load ptr, ptr %10, align 8, !tbaa !13
  %156 = getelementptr inbounds nuw %struct.prov_cipher_ctx_st, ptr %155, i32 0, i32 9
  %157 = load i64, ptr %156, align 8, !tbaa !26
  %158 = icmp ult i64 %154, %157
  br i1 %158, label %159, label %160

159:                                              ; preds = %153
  call void @ERR_new()
  call void @ERR_set_debug(ptr noundef @.str.1, i32 noundef 483, ptr noundef @__func__.ossl_cipher_generic_block_final)
  call void (i32, i32, ptr, ...) @ERR_set_error(i32 noundef 57, i32 noundef 106, ptr noundef null)
  store i32 0, ptr %5, align 4
  store i32 1, ptr %12, align 4
  br label %174

160:                                              ; preds = %153
  %161 = load ptr, ptr %7, align 8, !tbaa !25
  %162 = load ptr, ptr %10, align 8, !tbaa !13
  %163 = getelementptr inbounds nuw %struct.prov_cipher_ctx_st, ptr %162, i32 0, i32 1
  %164 = getelementptr inbounds [16 x i8], ptr %163, i64 0, i64 0
  %165 = load ptr, ptr %10, align 8, !tbaa !13
  %166 = getelementptr inbounds nuw %struct.prov_cipher_ctx_st, ptr %165, i32 0, i32 9
  %167 = load i64, ptr %166, align 8, !tbaa !26
  call void @llvm.memcpy.p0.p0.i64(ptr align 1 %161, ptr align 8 %164, i64 %167, i1 false)
  %168 = load ptr, ptr %10, align 8, !tbaa !13
  %169 = getelementptr inbounds nuw %struct.prov_cipher_ctx_st, ptr %168, i32 0, i32 9
  %170 = load i64, ptr %169, align 8, !tbaa !26
  %171 = load ptr, ptr %8, align 8, !tbaa !37
  store i64 %170, ptr %171, align 8, !tbaa !11
  %172 = load ptr, ptr %10, align 8, !tbaa !13
  %173 = getelementptr inbounds nuw %struct.prov_cipher_ctx_st, ptr %172, i32 0, i32 9
  store i64 0, ptr %173, align 8, !tbaa !26
  store i32 1, ptr %5, align 4
  store i32 1, ptr %12, align 4
  br label %174

174:                                              ; preds = %160, %159, %152, %135, %118, %116, %93, %92, %77, %70, %62, %34, %28, %19
  call void @llvm.lifetime.end.p0(i64 8, ptr %11) #7
  call void @llvm.lifetime.end.p0(i64 8, ptr %10) #7
  %175 = load i32, ptr %5, align 4
  ret i32 %175
}