; Function Attrs: nounwind uwtable
define range(i32 0, 2) i32 @ossl_cipher_generic_block_final(ptr noundef %0, ptr noundef %1, ptr noundef writeonly captures(none) %2, i64 noundef %3) local_unnamed_addr #1 {
  %5 = getelementptr inbounds nuw i8, ptr %0, i64 88
  %6 = load i64, ptr %5, align 8, !tbaa !30
  %7 = tail call i32 @ossl_prov_is_running() #6
  %.not = icmp eq i32 %7, 0
  br i1 %.not, label %71, label %8

8:                                                ; preds = %4
  %9 = getelementptr inbounds nuw i8, ptr %0, i64 108
  %10 = load i8, ptr %9, align 4
  %11 = and i8 %10, 8
  %.not49 = icmp eq i8 %11, 0
  br i1 %.not49, label %12, label %13

12:                                               ; preds = %8
  tail call void @ERR_new() #6
  tail call void @ERR_set_debug(ptr noundef nonnull @.str.1, i32 noundef 428, ptr noundef nonnull @__func__.ossl_cipher_generic_block_final) #6
  tail call void (i32, i32, ptr, ...) @ERR_set_error(i32 noundef 57, i32 noundef 114, ptr noundef null) #6
  br label %71

13:                                               ; preds = %8
  %14 = getelementptr inbounds nuw i8, ptr %0, i64 112
  %15 = load i32, ptr %14, align 8, !tbaa !31
  %.not50 = icmp eq i32 %15, 0
  br i1 %.not50, label %17, label %16

16:                                               ; preds = %13
  tail call void @ERR_new() #6
  tail call void @ERR_set_debug(ptr noundef nonnull @.str.1, i32 noundef 434, ptr noundef nonnull @__func__.ossl_cipher_generic_block_final) #6
  tail call void (i32, i32, ptr, ...) @ERR_set_error(i32 noundef 57, i32 noundef 102, ptr noundef null) #6
  br label %71

17:                                               ; preds = %13
  %18 = and i8 %10, 2
  %.not51 = icmp eq i8 %18, 0
  br i1 %.not51, label %44, label %19

19:                                               ; preds = %17
  %20 = and i8 %10, 1
  %.not57 = icmp eq i8 %20, 0
  br i1 %.not57, label %24, label %21

21:                                               ; preds = %19
  %22 = getelementptr inbounds nuw i8, ptr %0, i64 16
  %23 = getelementptr inbounds nuw i8, ptr %0, i64 96
  tail call void @ossl_cipher_padblock(ptr noundef nonnull %22, ptr noundef nonnull %23, i64 noundef %6) #6
  br label %31

24:                                               ; preds = %19
  %25 = getelementptr inbounds nuw i8, ptr %0, i64 96
  %26 = load i64, ptr %25, align 8, !tbaa !20
  %27 = icmp eq i64 %26, 0
  br i1 %27, label %28, label %29

28:                                               ; preds = %24
  store i64 0, ptr %2, align 8, !tbaa !15
  br label %71

29:                                               ; preds = %24
  %.not58 = icmp eq i64 %26, %6
  br i1 %.not58, label %31, label %30

30:                                               ; preds = %29
  tail call void @ERR_new() #6
  tail call void @ERR_set_debug(ptr noundef nonnull @.str.1, i32 noundef 445, ptr noundef nonnull @__func__.ossl_cipher_generic_block_final) #6
  tail call void (i32, i32, ptr, ...) @ERR_set_error(i32 noundef 57, i32 noundef 107, ptr noundef null) #6
  br label %71

31:                                               ; preds = %29, %21
  %32 = icmp ult i64 %3, %6
  br i1 %32, label %33, label %34

33:                                               ; preds = %31
  tail call void @ERR_new() #6
  tail call void @ERR_set_debug(ptr noundef nonnull @.str.1, i32 noundef 450, ptr noundef nonnull @__func__.ossl_cipher_generic_block_final) #6
  tail call void (i32, i32, ptr, ...) @ERR_set_error(i32 noundef 57, i32 noundef 106, ptr noundef null) #6
  br label %71

34:                                               ; preds = %31
  %35 = getelementptr inbounds nuw i8, ptr %0, i64 168
  %36 = load ptr, ptr %35, align 8, !tbaa !23
  %37 = getelementptr inbounds nuw i8, ptr %36, i64 8
  %38 = load ptr, ptr %37, align 8, !tbaa !35
  %39 = getelementptr inbounds nuw i8, ptr %0, i64 16
  %40 = tail call i32 %38(ptr noundef nonnull %0, ptr noundef %1, ptr noundef nonnull %39, i64 noundef %6) #6
  %.not59 = icmp eq i32 %40, 0
  br i1 %.not59, label %41, label %42

41:                                               ; preds = %34
  tail call void @ERR_new() #6
  tail call void @ERR_set_debug(ptr noundef nonnull @.str.1, i32 noundef 454, ptr noundef nonnull @__func__.ossl_cipher_generic_block_final) #6
  tail call void (i32, i32, ptr, ...) @ERR_set_error(i32 noundef 57, i32 noundef 102, ptr noundef null) #6
  br label %71

42:                                               ; preds = %34
  %43 = getelementptr inbounds nuw i8, ptr %0, i64 96
  store i64 0, ptr %43, align 8, !tbaa !20
  store i64 %6, ptr %2, align 8, !tbaa !15
  br label %71

44:                                               ; preds = %17
  %45 = getelementptr inbounds nuw i8, ptr %0, i64 96
  %46 = load i64, ptr %45, align 8, !tbaa !20
  %.not52 = icmp eq i64 %46, %6
  br i1 %.not52, label %52, label %47

47:                                               ; preds = %44
  %48 = icmp eq i64 %46, 0
  %49 = and i8 %10, 1
  %.not56 = icmp eq i8 %49, 0
  %or.cond = and i1 %.not56, %48
  br i1 %or.cond, label %50, label %51

50:                                               ; preds = %47
  store i64 0, ptr %2, align 8, !tbaa !15
  br label %71

51:                                               ; preds = %47
  tail call void @ERR_new() #6
  tail call void @ERR_set_debug(ptr noundef nonnull @.str.1, i32 noundef 468, ptr noundef nonnull @__func__.ossl_cipher_generic_block_final) #6
  tail call void (i32, i32, ptr, ...) @ERR_set_error(i32 noundef 57, i32 noundef 107, ptr noundef null) #6
  br label %71

52:                                               ; preds = %44
  %53 = getelementptr inbounds nuw i8, ptr %0, i64 168
  %54 = load ptr, ptr %53, align 8, !tbaa !23
  %55 = getelementptr inbounds nuw i8, ptr %54, i64 8
  %56 = load ptr, ptr %55, align 8, !tbaa !35
  %57 = getelementptr inbounds nuw i8, ptr %0, i64 16
  %58 = tail call i32 %56(ptr noundef nonnull %0, ptr noundef nonnull %57, ptr noundef nonnull %57, i64 noundef %6) #6
  %.not53 = icmp eq i32 %58, 0
  br i1 %.not53, label %59, label %60

59:                                               ; preds = %52
  tail call void @ERR_new() #6
  tail call void @ERR_set_debug(ptr noundef nonnull @.str.1, i32 noundef 473, ptr noundef nonnull @__func__.ossl_cipher_generic_block_final) #6
  tail call void (i32, i32, ptr, ...) @ERR_set_error(i32 noundef 57, i32 noundef 102, ptr noundef null) #6
  br label %71

60:                                               ; preds = %52
  %61 = load i8, ptr %9, align 4
  %62 = and i8 %61, 1
  %.not54 = icmp eq i8 %62, 0
  br i1 %.not54, label %65, label %63

63:                                               ; preds = %60
  %64 = tail call i32 @ossl_cipher_unpadblock(ptr noundef nonnull %57, ptr noundef nonnull %45, i64 noundef %6) #6
  %.not55 = icmp eq i32 %64, 0
  br i1 %.not55, label %71, label %65

65:                                               ; preds = %63, %60
  %66 = load i64, ptr %45, align 8, !tbaa !20
  %67 = icmp ult i64 %3, %66
  br i1 %67, label %68, label %69

68:                                               ; preds = %65
  tail call void @ERR_new() #6
  tail call void @ERR_set_debug(ptr noundef nonnull @.str.1, i32 noundef 483, ptr noundef nonnull @__func__.ossl_cipher_generic_block_final) #6
  tail call void (i32, i32, ptr, ...) @ERR_set_error(i32 noundef 57, i32 noundef 106, ptr noundef null) #6
  br label %71

69:                                               ; preds = %65
  tail call void @llvm.memcpy.p0.p0.i64(ptr align 1 %1, ptr nonnull align 8 %57, i64 %66, i1 false)
  %70 = load i64, ptr %45, align 8, !tbaa !20
  store i64 %70, ptr %2, align 8, !tbaa !15
  store i64 0, ptr %45, align 8, !tbaa !20
  br label %71

71:                                               ; preds = %63, %4, %69, %68, %59, %51, %50, %42, %41, %33, %30, %28, %16, %12
  %.0 = phi i32 [ 0, %16 ], [ 0, %33 ], [ 1, %42 ], [ 0, %41 ], [ 1, %28 ], [ 0, %30 ], [ 0, %51 ], [ 1, %50 ], [ 0, %68 ], [ 1, %69 ], [ 0, %59 ], [ 0, %12 ], [ 0, %4 ], [ 0, %63 ]
  ret i32 %.0
}